target datalayout = "e-m:e-p270:32:32-p271:32:32-p272:64:64-i64:64-i128:128-f80:128-n8:16:32:64-S128"
target triple = "x86_64-pc-linux-gnu"

; Function Attrs: mustprogress nounwind uwtable
define hidden noundef zeroext i1 @_Z3addjPKjS0_Pj(i32 noundef %0, ptr noundef %1, ptr noundef %2, ptr noundef %3) #4 {
  %5 = alloca i32, align 4
  %6 = alloca ptr, align 8
  %7 = alloca ptr, align 8
  %8 = alloca ptr, align 8
  %9 = alloca i32, align 4
  %10 = alloca i32, align 4
  %11 = alloca i32, align 4
  %12 = alloca i8, align 1
  %13 = alloca i8, align 1
  store i32 %0, ptr %5, align 4, !tbaa !3
  store ptr %1, ptr %6, align 8, !tbaa !7
  store ptr %2, ptr %7, align 8, !tbaa !7
  store ptr %3, ptr %8, align 8, !tbaa !7
  call void @llvm.lifetime.start.p0(i64 4, ptr %9) #3
  store i32 0, ptr %9, align 4, !tbaa !3
  call void @llvm.lifetime.start.p0(i64 4, ptr %10) #3
  store i32 0, ptr %10, align 4, !tbaa !3
  br label %14

14:                                               ; preds = %61, %4
  %15 = load i32, ptr %10, align 4, !tbaa !3
  %16 = load i32, ptr %5, align 4, !tbaa !3
  %17 = icmp ult i32 %15, %16
  br i1 %17, label %19, label %18

18:                                               ; preds = %14
  call void @llvm.lifetime.end.p0(i64 4, ptr %10) #3
  br label %64

19:                                               ; preds = %14
  call void @llvm.lifetime.start.p0(i64 4, ptr %11) #3
  %20 = load ptr, ptr %6, align 8, !tbaa !7
  %21 = load i32, ptr %10, align 4, !tbaa !3
  %22 = zext i32 %21 to i64
  %23 = getelementptr inbounds nuw i32, ptr %20, i64 %22
  %24 = load i32, ptr %23, align 4, !tbaa !3
  %25 = load ptr, ptr %7, align 8, !tbaa !7
  %26 = load i32, ptr %10, align 4, !tbaa !3
  %27 = zext i32 %26 to i64
  %28 = getelementptr inbounds nuw i32, ptr %25, i64 %27
  %29 = load i32, ptr %28, align 4, !tbaa !3
  %30 = add i32 %24, %29
  store i32 %30, ptr %11, align 4, !tbaa !3
  call void @llvm.lifetime.start.p0(i64 1, ptr %12) #3
  %31 = load i32, ptr %11, align 4, !tbaa !3
  %32 = load ptr, ptr %6, align 8, !tbaa !7
  %33 = load i32, ptr %10, align 4, !tbaa !3
  %34 = zext i32 %33 to i64
  %35 = getelementptr inbounds nuw i32, ptr %32, i64 %34
  %36 = load i32, ptr %35, align 4, !tbaa !3
  %37 = icmp ult i32 %31, %36
  %38 = zext i1 %37 to i8
  store i8 %38, ptr %12, align 1, !tbaa !36
  %39 = load i32, ptr %11, align 4, !tbaa !3
  %40 = load i32, ptr %9, align 4, !tbaa !3
  %41 = add i32 %39, %40
  %42 = load ptr, ptr %8, align 8, !tbaa !7
  %43 = load i32, ptr %10, align 4, !tbaa !3
  %44 = zext i32 %43 to i64
  %45 = getelementptr inbounds nuw i32, ptr %42, i64 %44
  store i32 %41, ptr %45, align 4, !tbaa !3
  call void @llvm.lifetime.start.p0(i64 1, ptr %13) #3
  %46 = load ptr, ptr %8, align 8, !tbaa !7
  %47 = load i32, ptr %10, align 4, !tbaa !3
  %48 = zext i32 %47 to i64
  %49 = getelementptr inbounds nuw i32, ptr %46, i64 %48
  %50 = load i32, ptr %49, align 4, !tbaa !3
  %51 = load i32, ptr %11, align 4, !tbaa !3
  %52 = icmp ult i32 %50, %51
  %53 = zext i1 %52 to i8
  store i8 %53, ptr %13, align 1, !tbaa !36
  %54 = load i8, ptr %12, align 1, !tbaa !36, !range !38, !noundef !39
  %55 = trunc i8 %54 to i1
  %56 = zext i1 %55 to i32
  %57 = load i8, ptr %13, align 1, !tbaa !36, !range !38, !noundef !39
  %58 = trunc i8 %57 to i1
  %59 = zext i1 %58 to i32
  %60 = or i32 %56, %59
  store i32 %60, ptr %9, align 4, !tbaa !3
  call void @llvm.lifetime.end.p0(i64 1, ptr %13) #3
  call void @llvm.lifetime.end.p0(i64 1, ptr %12) #3
  call void @llvm.lifetime.end.p0(i64 4, ptr %11) #3
  br label %61

61:                                               ; preds = %19
  %62 = load i32, ptr %10, align 4, !tbaa !3
  %63 = add i32 %62, 1
  store i32 %63, ptr %10, align 4, !tbaa !3
  br label %14, !llvm.loop !40

64:                                               ; preds = %18
  %65 = load i32, ptr %9, align 4, !tbaa !3
  %66 = icmp eq i32 %65, 0
  call void @llvm.lifetime.end.p0(i64 4, ptr %9) #3
  ret i1 %66
}